target datalayout = "e-m:e-p270:32:32-p271:32:32-p272:64:64-i64:64-i128:128-f80:128-n8:16:32:64-S128"
target triple = "x86_64-pc-linux-gnu"

@.str = private unnamed_addr constant [34 x i8] c"../openssl/crypto/asn1/asn_mime.c\00", align 1
@__func__.i2d_ASN1_bio_stream = private unnamed_addr constant [20 x i8] c"i2d_ASN1_bio_stream\00", align 1

; Function Attrs: nounwind uwtable
define i32 @i2d_ASN1_bio_stream(ptr noundef %0, ptr noundef %1, ptr noundef %2, i32 noundef %3, ptr noundef %4) #0 {
  %6 = alloca i32, align 4
  %7 = alloca ptr, align 8
  %8 = alloca ptr, align 8
  %9 = alloca ptr, align 8
  %10 = alloca i32, align 4
  %11 = alloca ptr, align 8
  %12 = alloca i32, align 4
  %13 = alloca ptr, align 8
  %14 = alloca ptr, align 8
  %15 = alloca i32, align 4
  store ptr %0, ptr %7, align 8, !tbaa !3
  store ptr %1, ptr %8, align 8, !tbaa !8
  store ptr %2, ptr %9, align 8, !tbaa !3
  store i32 %3, ptr %10, align 4, !tbaa !10
  store ptr %4, ptr %11, align 8, !tbaa !12
  call void @llvm.lifetime.start.p0(i64 4, ptr %12) #5
  store i32 1, ptr %12, align 4, !tbaa !10
  %16 = load i32, ptr %10, align 4, !tbaa !10
  %17 = and i32 %16, 4096
  %18 = icmp ne i32 %17, 0
  br i1 %18, label %19, label %51

19:                                               ; preds = %5
  call void @llvm.lifetime.start.p0(i64 8, ptr %13) #5
  call void @llvm.lifetime.start.p0(i64 8, ptr %14) #5
  %20 = load ptr, ptr %7, align 8, !tbaa !3
  %21 = load ptr, ptr %8, align 8, !tbaa !8
  %22 = load ptr, ptr %11, align 8, !tbaa !12
  %23 = call ptr @BIO_new_NDEF(ptr noundef %20, ptr noundef %21, ptr noundef %22)
  store ptr %23, ptr %13, align 8, !tbaa !3
  %24 = load ptr, ptr %13, align 8, !tbaa !3
  %25 = icmp ne ptr %24, null
  br i1 %25, label %27, label %26

26:                                               ; preds = %19
  call void @ERR_new()
  call void @ERR_set_debug(ptr noundef @.str, i32 noundef 79, ptr noundef @__func__.i2d_ASN1_bio_stream)
  call void (i32, i32, ptr, ...) @ERR_set_error(i32 noundef 13, i32 noundef 524295, ptr noundef null)
  store i32 0, ptr %6, align 4
  store i32 1, ptr %15, align 4
  br label %48

27:                                               ; preds = %19
  %28 = load ptr, ptr %9, align 8, !tbaa !3
  %29 = load ptr, ptr %13, align 8, !tbaa !3
  %30 = load i32, ptr %10, align 4, !tbaa !10
  %31 = call i32 @SMIME_crlf_copy(ptr noundef %28, ptr noundef %29, i32 noundef %30)
  %32 = icmp ne i32 %31, 0
  br i1 %32, label %34, label %33

33:                                               ; preds = %27
  store i32 0, ptr %12, align 4, !tbaa !10
  br label %34

34:                                               ; preds = %33, %27
  %35 = load ptr, ptr %13, align 8, !tbaa !3
  %36 = call i64 @BIO_ctrl(ptr noundef %35, i32 noundef 11, i64 noundef 0, ptr noundef null)
  br label %37

37:                                               ; preds = %43, %34
  %38 = load ptr, ptr %13, align 8, !tbaa !3
  %39 = call ptr @BIO_pop(ptr noundef %38)
  store ptr %39, ptr %14, align 8, !tbaa !3
  %40 = load ptr, ptr %13, align 8, !tbaa !3
  %41 = call i32 @BIO_free(ptr noundef %40)
  %42 = load ptr, ptr %14, align 8, !tbaa !3
  store ptr %42, ptr %13, align 8, !tbaa !3
  br label %43

43:                                               ; preds = %37
  %44 = load ptr, ptr %13, align 8, !tbaa !3
  %45 = load ptr, ptr %7, align 8, !tbaa !3
  %46 = icmp ne ptr %44, %45
  br i1 %46, label %37, label %47, !llvm.loop !14

47:                                               ; preds = %43
  store i32 0, ptr %15, align 4
  br label %48

48:                                               ; preds = %47, %26
  call void @llvm.lifetime.end.p0(i64 8, ptr %14) #5
  call void @llvm.lifetime.end.p0(i64 8, ptr %13) #5
  %49 = load i32, ptr %15, align 4
  switch i32 %49, label %58 [
    i32 0, label %50
  ]

50:                                               ; preds = %48
  br label %56

51:                                               ; preds = %5
  %52 = load ptr, ptr %11, align 8, !tbaa !12
  %53 = load ptr, ptr %7, align 8, !tbaa !3
  %54 = load ptr, ptr %8, align 8, !tbaa !8
  %55 = call i32 @ASN1_item_i2d_bio(ptr noundef %52, ptr noundef %53, ptr noundef %54)
  br label %56

56:                                               ; preds = %51, %50
  %57 = load i32, ptr %12, align 4, !tbaa !10
  store i32 %57, ptr %6, align 4
  store i32 1, ptr %15, align 4
  br label %58

58:                                               ; preds = %56, %48
  call void @llvm.lifetime.end.p0(i64 4, ptr %12) #5
  %59 = load i32, ptr %6, align 4
  ret i32 %59
}