; Function Attrs: nounwind uwtable
define range(i32 0, 2) i32 @i2d_ASN1_bio_stream(ptr noundef %0, ptr noundef %1, ptr noundef %2, i32 noundef %3, ptr noundef %4) local_unnamed_addr #0 {
  %6 = and i32 %3, 4096
  %.not = icmp eq i32 %6, 0
  br i1 %.not, label %16, label %7

7:                                                ; preds = %5
  %8 = tail call ptr @BIO_new_NDEF(ptr noundef %0, ptr noundef %1, ptr noundef %4) #6
  %.not24.not = icmp eq ptr %8, null
  br i1 %.not24.not, label %9, label %10

9:                                                ; preds = %7
  tail call void @ERR_new() #6
  tail call void @ERR_set_debug(ptr noundef nonnull @.str, i32 noundef 79, ptr noundef nonnull @__func__.i2d_ASN1_bio_stream) #6
  tail call void (i32, i32, ptr, ...) @ERR_set_error(i32 noundef 13, i32 noundef 524295, ptr noundef null) #6
  br label %.loopexit

10:                                               ; preds = %7
  %11 = tail call i32 @SMIME_crlf_copy(ptr noundef %2, ptr noundef nonnull %8, i32 noundef %3)
  %12 = tail call i64 @BIO_ctrl(ptr noundef nonnull %8, i32 noundef 11, i64 noundef 0, ptr noundef null) #6
  br label %13

13:                                               ; preds = %13, %10
  %.020 = phi ptr [ %8, %10 ], [ %14, %13 ]
  %14 = tail call ptr @BIO_pop(ptr noundef %.020) #6
  %15 = tail call i32 @BIO_free(ptr noundef %.020) #6
  %.not26 = icmp eq ptr %14, %0
  br i1 %.not26, label %.loopexit, label %13, !llvm.loop !3

16:                                               ; preds = %5
  %17 = tail call i32 @ASN1_item_i2d_bio(ptr noundef %4, ptr noundef %0, ptr noundef %1) #6
  br label %.loopexit

.loopexit:                                        ; preds = %13, %9, %16
  %.1 = phi i32 [ 1, %16 ], [ 0, %9 ], [ %11, %13 ]
  ret i32 %.1
}